target datalayout = "e-m:e-p270:32:32-p271:32:32-p272:64:64-i64:64-i128:128-f80:128-n8:16:32:64-S128"
target triple = "x86_64-pc-linux-gnu"

%struct.pkcs7_signer_info_st = type { ptr, ptr, ptr, ptr, ptr, ptr, ptr, ptr, ptr }
%struct.pkcs7_st = type { ptr, i64, i32, i32, ptr, %union.anon, %struct.PKCS7_CTX_st }
%union.anon = type { ptr }
%struct.PKCS7_CTX_st = type { ptr, ptr }
%struct.pkcs7_issuer_and_serial_st = type { ptr, ptr }

@.str = private unnamed_addr constant [36 x i8] c"../openssl/crypto/pkcs7/pk7_smime.c\00", align 1
@__func__.PKCS7_get0_signers = private unnamed_addr constant [19 x i8] c"PKCS7_get0_signers\00", align 1

; Function Attrs: inlinehint nounwind uwtable
define internal ptr @ossl_check_X509_type(ptr noundef %0) #3 {
  %2 = alloca ptr, align 8
  store ptr %0, ptr %2, align 8, !tbaa !3
  %3 = load ptr, ptr %2, align 8, !tbaa !3
  ret ptr %3
}

; Function Attrs: inlinehint nounwind uwtable
define internal ptr @ossl_check_X509_sk_type(ptr noundef %0) #3 {
  %2 = alloca ptr, align 8
  store ptr %0, ptr %2, align 8, !tbaa !10
  %3 = load ptr, ptr %2, align 8, !tbaa !10
  ret ptr %3
}

; Function Attrs: inlinehint nounwind uwtable
define internal ptr @ossl_check_const_PKCS7_SIGNER_INFO_sk_type(ptr noundef %0) #3 {
  %2 = alloca ptr, align 8
  store ptr %0, ptr %2, align 8, !tbaa !39
  %3 = load ptr, ptr %2, align 8, !tbaa !39
  ret ptr %3
}

; Function Attrs: nounwind uwtable
define ptr @PKCS7_get0_signers(ptr noundef %0, ptr noundef %1, i32 noundef %2) #0 {
  %4 = alloca ptr, align 8
  %5 = alloca ptr, align 8
  %6 = alloca ptr, align 8
  %7 = alloca i32, align 4
  %8 = alloca ptr, align 8
  %9 = alloca ptr, align 8
  %10 = alloca ptr, align 8
  %11 = alloca ptr, align 8
  %12 = alloca ptr, align 8
  %13 = alloca ptr, align 8
  %14 = alloca i32, align 4
  %15 = alloca i32, align 4
  store ptr %0, ptr %5, align 8, !tbaa !20
  store ptr %1, ptr %6, align 8, !tbaa !10
  store i32 %2, ptr %7, align 4, !tbaa !14
  call void @llvm.lifetime.start.p0(i64 8, ptr %8) #4
  call void @llvm.lifetime.start.p0(i64 8, ptr %9) #4
  call void @llvm.lifetime.start.p0(i64 8, ptr %10) #4
  call void @llvm.lifetime.start.p0(i64 8, ptr %11) #4
  call void @llvm.lifetime.start.p0(i64 8, ptr %12) #4
  call void @llvm.lifetime.start.p0(i64 8, ptr %13) #4
  call void @llvm.lifetime.start.p0(i64 4, ptr %14) #4
  %16 = load ptr, ptr %5, align 8, !tbaa !20
  %17 = icmp eq ptr %16, null
  br i1 %17, label %18, label %19

18:                                               ; preds = %3
  call void @ERR_new()
  call void @ERR_set_debug(ptr noundef @.str, i32 noundef 378, ptr noundef @__func__.PKCS7_get0_signers)
  call void (i32, i32, ptr, ...) @ERR_set_error(i32 noundef 33, i32 noundef 143, ptr noundef null)
  store ptr null, ptr %4, align 8
  store i32 1, ptr %15, align 4
  br label %100

19:                                               ; preds = %3
  %20 = load ptr, ptr %5, align 8, !tbaa !20
  %21 = getelementptr inbounds nuw %struct.pkcs7_st, ptr %20, i32 0, i32 4
  %22 = load ptr, ptr %21, align 8, !tbaa !56
  %23 = call i32 @OBJ_obj2nid(ptr noundef %22)
  %24 = icmp eq i32 %23, 22
  br i1 %24, label %26, label %25

25:                                               ; preds = %19
  call void @ERR_new()
  call void @ERR_set_debug(ptr noundef @.str, i32 noundef 383, ptr noundef @__func__.PKCS7_get0_signers)
  call void (i32, i32, ptr, ...) @ERR_set_error(i32 noundef 33, i32 noundef 113, ptr noundef null)
  store ptr null, ptr %4, align 8
  store i32 1, ptr %15, align 4
  br label %100

26:                                               ; preds = %19
  %27 = load ptr, ptr %5, align 8, !tbaa !20
  %28 = call ptr @pkcs7_get0_certificates(ptr noundef %27)
  store ptr %28, ptr %9, align 8, !tbaa !10
  %29 = load ptr, ptr %5, align 8, !tbaa !20
  %30 = call ptr @PKCS7_get_signer_info(ptr noundef %29)
  store ptr %30, ptr %10, align 8, !tbaa !39
  %31 = load ptr, ptr %10, align 8, !tbaa !39
  %32 = call ptr @ossl_check_const_PKCS7_SIGNER_INFO_sk_type(ptr noundef %31)
  %33 = call i32 @OPENSSL_sk_num(ptr noundef %32)
  %34 = icmp sle i32 %33, 0
  br i1 %34, label %35, label %36

35:                                               ; preds = %26
  call void @ERR_new()
  call void @ERR_set_debug(ptr noundef @.str, i32 noundef 393, ptr noundef @__func__.PKCS7_get0_signers)
  call void (i32, i32, ptr, ...) @ERR_set_error(i32 noundef 33, i32 noundef 142, ptr noundef null)
  store ptr null, ptr %4, align 8
  store i32 1, ptr %15, align 4
  br label %100

36:                                               ; preds = %26
  %37 = call ptr @OPENSSL_sk_new_null()
  store ptr %37, ptr %8, align 8, !tbaa !10
  %38 = icmp eq ptr %37, null
  br i1 %38, label %39, label %40

39:                                               ; preds = %36
  call void @ERR_new()
  call void @ERR_set_debug(ptr noundef @.str, i32 noundef 398, ptr noundef @__func__.PKCS7_get0_signers)
  call void (i32, i32, ptr, ...) @ERR_set_error(i32 noundef 33, i32 noundef 524303, ptr noundef null)
  store ptr null, ptr %4, align 8
  store i32 1, ptr %15, align 4
  br label %100

40:                                               ; preds = %36
  store i32 0, ptr %14, align 4, !tbaa !14
  br label %41

41:                                               ; preds = %95, %40
  %42 = load i32, ptr %14, align 4, !tbaa !14
  %43 = load ptr, ptr %10, align 8, !tbaa !39
  %44 = call ptr @ossl_check_const_PKCS7_SIGNER_INFO_sk_type(ptr noundef %43)
  %45 = call i32 @OPENSSL_sk_num(ptr noundef %44)
  %46 = icmp slt i32 %42, %45
  br i1 %46, label %47, label %98

47:                                               ; preds = %41
  %48 = load ptr, ptr %10, align 8, !tbaa !39
  %49 = call ptr @ossl_check_const_PKCS7_SIGNER_INFO_sk_type(ptr noundef %48)
  %50 = load i32, ptr %14, align 4, !tbaa !14
  %51 = call ptr @OPENSSL_sk_value(ptr noundef %49, i32 noundef %50)
  store ptr %51, ptr %11, align 8, !tbaa !26
  %52 = load ptr, ptr %11, align 8, !tbaa !26
  %53 = getelementptr inbounds nuw %struct.pkcs7_signer_info_st, ptr %52, i32 0, i32 1
  %54 = load ptr, ptr %53, align 8, !tbaa !66
  store ptr %54, ptr %12, align 8, !tbaa !67
  store ptr null, ptr %13, align 8, !tbaa !3
  %55 = load ptr, ptr %6, align 8, !tbaa !10
  %56 = load ptr, ptr %12, align 8, !tbaa !67
  %57 = getelementptr inbounds nuw %struct.pkcs7_issuer_and_serial_st, ptr %56, i32 0, i32 0
  %58 = load ptr, ptr %57, align 8, !tbaa !68
  %59 = load ptr, ptr %12, align 8, !tbaa !67
  %60 = getelementptr inbounds nuw %struct.pkcs7_issuer_and_serial_st, ptr %59, i32 0, i32 1
  %61 = load ptr, ptr %60, align 8, !tbaa !71
  %62 = call ptr @X509_find_by_issuer_and_serial(ptr noundef %55, ptr noundef %58, ptr noundef %61)
  store ptr %62, ptr %13, align 8, !tbaa !3
  %63 = load ptr, ptr %13, align 8, !tbaa !3
  %64 = icmp eq ptr %63, null
  br i1 %64, label %65, label %78

65:                                               ; preds = %47
  %66 = load i32, ptr %7, align 4, !tbaa !14
  %67 = and i32 %66, 16
  %68 = icmp eq i32 %67, 0
  br i1 %68, label %69, label %78

69:                                               ; preds = %65
  %70 = load ptr, ptr %9, align 8, !tbaa !10
  %71 = load ptr, ptr %12, align 8, !tbaa !67
  %72 = getelementptr inbounds nuw %struct.pkcs7_issuer_and_serial_st, ptr %71, i32 0, i32 0
  %73 = load ptr, ptr %72, align 8, !tbaa !68
  %74 = load ptr, ptr %12, align 8, !tbaa !67
  %75 = getelementptr inbounds nuw %struct.pkcs7_issuer_and_serial_st, ptr %74, i32 0, i32 1
  %76 = load ptr, ptr %75, align 8, !tbaa !71
  %77 = call ptr @X509_find_by_issuer_and_serial(ptr noundef %70, ptr noundef %73, ptr noundef %76)
  store ptr %77, ptr %13, align 8, !tbaa !3
  br label %78

78:                                               ; preds = %69, %65, %47
  %79 = load ptr, ptr %13, align 8, !tbaa !3
  %80 = icmp eq ptr %79, null
  br i1 %80, label %81, label %84

81:                                               ; preds = %78
  call void @ERR_new()
  call void @ERR_set_debug(ptr noundef @.str, i32 noundef 413, ptr noundef @__func__.PKCS7_get0_signers)
  call void (i32, i32, ptr, ...) @ERR_set_error(i32 noundef 33, i32 noundef 128, ptr noundef null)
  %82 = load ptr, ptr %8, align 8, !tbaa !10
  %83 = call ptr @ossl_check_X509_sk_type(ptr noundef %82)
  call void @OPENSSL_sk_free(ptr noundef %83)
  store ptr null, ptr %4, align 8
  store i32 1, ptr %15, align 4
  br label %100

84:                                               ; preds = %78
  %85 = load ptr, ptr %8, align 8, !tbaa !10
  %86 = call ptr @ossl_check_X509_sk_type(ptr noundef %85)
  %87 = load ptr, ptr %13, align 8, !tbaa !3
  %88 = call ptr @ossl_check_X509_type(ptr noundef %87)
  %89 = call i32 @OPENSSL_sk_push(ptr noundef %86, ptr noundef %88)
  %90 = icmp ne i32 %89, 0
  br i1 %90, label %94, label %91

91:                                               ; preds = %84
  %92 = load ptr, ptr %8, align 8, !tbaa !10
  %93 = call ptr @ossl_check_X509_sk_type(ptr noundef %92)
  call void @OPENSSL_sk_free(ptr noundef %93)
  store ptr null, ptr %4, align 8
  store i32 1, ptr %15, align 4
  br label %100

94:                                               ; preds = %84
  br label %95

95:                                               ; preds = %94
  %96 = load i32, ptr %14, align 4, !tbaa !14
  %97 = add nsw i32 %96, 1
  store i32 %97, ptr %14, align 4, !tbaa !14
  br label %41, !llvm.loop !72

98:                                               ; preds = %41
  %99 = load ptr, ptr %8, align 8, !tbaa !10
  store ptr %99, ptr %4, align 8
  store i32 1, ptr %15, align 4
  br label %100

100:                                              ; preds = %98, %91, %81, %39, %35, %25, %18
  call void @llvm.lifetime.end.p0(i64 4, ptr %14) #4
  call void @llvm.lifetime.end.p0(i64 8, ptr %13) #4
  call void @llvm.lifetime.end.p0(i64 8, ptr %12) #4
  call void @llvm.lifetime.end.p0(i64 8, ptr %11) #4
  call void @llvm.lifetime.end.p0(i64 8, ptr %10) #4
  call void @llvm.lifetime.end.p0(i64 8, ptr %9) #4
  call void @llvm.lifetime.end.p0(i64 8, ptr %8) #4
  %101 = load ptr, ptr %4, align 8
  ret ptr %101
}