; Function Attrs: nounwind uwtable
define ptr @PKCS7_get0_signers(ptr noundef %0, ptr noundef %1, i32 noundef %2) local_unnamed_addr #0 {
  %4 = icmp eq ptr %0, null
  br i1 %4, label %5, label %6

5:                                                ; preds = %3
  tail call void @ERR_new() #3
  tail call void @ERR_set_debug(ptr noundef nonnull @.str, i32 noundef 378, ptr noundef nonnull @__func__.PKCS7_get0_signers) #3
  tail call void (i32, i32, ptr, ...) @ERR_set_error(i32 noundef 33, i32 noundef 143, ptr noundef null) #3
  br label %.loopexit

6:                                                ; preds = %3
  %7 = getelementptr inbounds nuw i8, ptr %0, i64 24
  %8 = load ptr, ptr %7, align 8, !tbaa !31
  %9 = tail call i32 @OBJ_obj2nid(ptr noundef %8) #3
  %10 = icmp eq i32 %9, 22
  br i1 %10, label %12, label %11

11:                                               ; preds = %6
  tail call void @ERR_new() #3
  tail call void @ERR_set_debug(ptr noundef nonnull @.str, i32 noundef 383, ptr noundef nonnull @__func__.PKCS7_get0_signers) #3
  tail call void (i32, i32, ptr, ...) @ERR_set_error(i32 noundef 33, i32 noundef 113, ptr noundef null) #3
  br label %.loopexit

12:                                               ; preds = %6
  %13 = tail call ptr @pkcs7_get0_certificates(ptr noundef nonnull %0) #3
  %14 = tail call ptr @PKCS7_get_signer_info(ptr noundef nonnull %0) #3
  %15 = tail call i32 @OPENSSL_sk_num(ptr noundef %14) #3
  %16 = icmp slt i32 %15, 1
  br i1 %16, label %17, label %18

17:                                               ; preds = %12
  tail call void @ERR_new() #3
  tail call void @ERR_set_debug(ptr noundef nonnull @.str, i32 noundef 393, ptr noundef nonnull @__func__.PKCS7_get0_signers) #3
  tail call void (i32, i32, ptr, ...) @ERR_set_error(i32 noundef 33, i32 noundef 142, ptr noundef null) #3
  br label %.loopexit

18:                                               ; preds = %12
  %19 = tail call ptr @OPENSSL_sk_new_null() #3
  %20 = icmp eq ptr %19, null
  br i1 %20, label %43, label %.preheader

.preheader:                                       ; preds = %18
  %21 = tail call i32 @OPENSSL_sk_num(ptr noundef %14) #3
  %22 = icmp sgt i32 %21, 0
  br i1 %22, label %.lr.ph, label %.loopexit

.lr.ph:                                           ; preds = %.preheader
  %23 = and i32 %2, 16
  %24 = icmp eq i32 %23, 0
  br i1 %24, label %.lr.ph.split.us, label %.lr.ph.split

.lr.ph.split.us:                                  ; preds = %.lr.ph, %33
  %.034.us = phi i32 [ %34, %33 ], [ 0, %.lr.ph ]
  %25 = tail call ptr @OPENSSL_sk_value(ptr noundef %14, i32 noundef %.034.us) #3
  %26 = getelementptr inbounds nuw i8, ptr %25, i64 8
  %27 = load ptr, ptr %26, align 8, !tbaa !44
  %28 = load ptr, ptr %27, align 8, !tbaa !45
  %29 = getelementptr inbounds nuw i8, ptr %27, i64 8
  %30 = load ptr, ptr %29, align 8, !tbaa !48
  %31 = tail call ptr @X509_find_by_issuer_and_serial(ptr noundef %1, ptr noundef %28, ptr noundef %30) #3
  %32 = icmp eq ptr %31, null
  br i1 %32, label %37, label %.thread31.us

33:                                               ; preds = %.thread31.us
  %34 = add nuw nsw i32 %.034.us, 1
  %35 = tail call i32 @OPENSSL_sk_num(ptr noundef %14) #3
  %36 = icmp slt i32 %34, %35
  br i1 %36, label %.lr.ph.split.us, label %.loopexit, !llvm.loop !49

37:                                               ; preds = %.lr.ph.split.us
  %38 = load ptr, ptr %27, align 8, !tbaa !45
  %39 = load ptr, ptr %29, align 8, !tbaa !48
  %40 = tail call ptr @X509_find_by_issuer_and_serial(ptr noundef %13, ptr noundef %38, ptr noundef %39) #3
  %41 = icmp eq ptr %40, null
  br i1 %41, label %.thread, label %.thread31.us

.thread31.us:                                     ; preds = %37, %.lr.ph.split.us
  %.02533.us = phi ptr [ %40, %37 ], [ %31, %.lr.ph.split.us ]
  %42 = tail call i32 @OPENSSL_sk_push(ptr noundef nonnull %19, ptr noundef nonnull %.02533.us) #3
  %.not.us = icmp eq i32 %42, 0
  br i1 %.not.us, label %.split.us, label %33

43:                                               ; preds = %18
  tail call void @ERR_new() #3
  tail call void @ERR_set_debug(ptr noundef nonnull @.str, i32 noundef 398, ptr noundef nonnull @__func__.PKCS7_get0_signers) #3
  tail call void (i32, i32, ptr, ...) @ERR_set_error(i32 noundef 33, i32 noundef 524303, ptr noundef null) #3
  br label %.loopexit

44:                                               ; preds = %.thread31
  %45 = add nuw nsw i32 %.034, 1
  %46 = tail call i32 @OPENSSL_sk_num(ptr noundef %14) #3
  %47 = icmp slt i32 %45, %46
  br i1 %47, label %.lr.ph.split, label %.loopexit, !llvm.loop !49

.lr.ph.split:                                     ; preds = %.lr.ph, %44
  %.034 = phi i32 [ %45, %44 ], [ 0, %.lr.ph ]
  %48 = tail call ptr @OPENSSL_sk_value(ptr noundef %14, i32 noundef %.034) #3
  %49 = getelementptr inbounds nuw i8, ptr %48, i64 8
  %50 = load ptr, ptr %49, align 8, !tbaa !44
  %51 = load ptr, ptr %50, align 8, !tbaa !45
  %52 = getelementptr inbounds nuw i8, ptr %50, i64 8
  %53 = load ptr, ptr %52, align 8, !tbaa !48
  %54 = tail call ptr @X509_find_by_issuer_and_serial(ptr noundef %1, ptr noundef %51, ptr noundef %53) #3
  %55 = icmp eq ptr %54, null
  br i1 %55, label %.thread, label %.thread31

.thread:                                          ; preds = %.lr.ph.split, %37
  tail call void @ERR_new() #3
  tail call void @ERR_set_debug(ptr noundef nonnull @.str, i32 noundef 413, ptr noundef nonnull @__func__.PKCS7_get0_signers) #3
  tail call void (i32, i32, ptr, ...) @ERR_set_error(i32 noundef 33, i32 noundef 128, ptr noundef null) #3
  tail call void @OPENSSL_sk_free(ptr noundef nonnull %19) #3
  br label %.loopexit

.thread31:                                        ; preds = %.lr.ph.split
  %56 = tail call i32 @OPENSSL_sk_push(ptr noundef nonnull %19, ptr noundef nonnull %54) #3
  %.not = icmp eq i32 %56, 0
  br i1 %.not, label %.split.us, label %44

.split.us:                                        ; preds = %.thread31, %.thread31.us
  tail call void @OPENSSL_sk_free(ptr noundef nonnull %19) #3
  br label %.loopexit

.loopexit:                                        ; preds = %44, %33, %.preheader, %.split.us, %.thread, %43, %17, %11, %5
  %.026 = phi ptr [ null, %5 ], [ null, %17 ], [ null, %43 ], [ null, %.thread ], [ null, %.split.us ], [ null, %11 ], [ %19, %.preheader ], [ %19, %33 ], [ %19, %44 ]
  ret ptr %.026
}